target datalayout = "e-m:e-p270:32:32-p271:32:32-p272:64:64-i64:64-i128:128-f80:128-n8:16:32:64-S128"
target triple = "x86_64-pc-linux-gnu"

%struct.expert_field = type { i32, i32 }

@is_uplink = internal global i32 0, align 4
@ei_gsm_a_dtap_extraneous_data = internal global %struct.expert_field zeroinitializer, align 4
@ei_gsm_a_dtap_missing_mandatory_element = internal global %struct.expert_field zeroinitializer, align 4
@.str.824 = private unnamed_addr constant [1 x i8] zeroinitializer, align 1
@.str.1325 = private unnamed_addr constant [62 x i8] c"Missing Mandatory element %s%s, rest of dissection is suspect\00", align 1
@.str.1339 = private unnamed_addr constant [15 x i8] c" - T3246 value\00", align 1

; Function Attrs: null_pointer_is_valid sspstrong uwtable
define internal void @dtap_mm_cm_srvc_rej(ptr noundef %0, ptr noundef %1, ptr noundef %2, i32 noundef %3, i32 noundef %4) #1 {
  %6 = alloca ptr, align 8
  %7 = alloca ptr, align 8
  %8 = alloca ptr, align 8
  %9 = alloca i32, align 4
  %10 = alloca i32, align 4
  %11 = alloca i32, align 4
  %12 = alloca i32, align 4
  %13 = alloca i32, align 4
  %14 = alloca i32, align 4
  store ptr %0, ptr %6, align 8
  store ptr %1, ptr %7, align 8
  store ptr %2, ptr %8, align 8
  store i32 %3, ptr %9, align 4
  store i32 %4, ptr %10, align 4
  call void @llvm.lifetime.start.p0(i64 4, ptr %11) #7
  call void @llvm.lifetime.start.p0(i64 4, ptr %12) #7
  call void @llvm.lifetime.start.p0(i64 4, ptr %13) #7
  %15 = load i32, ptr %9, align 4
  store i32 %15, ptr %11, align 4
  %16 = load i32, ptr %10, align 4
  store i32 %16, ptr %13, align 4
  store i32 0, ptr @is_uplink, align 4
  %17 = load i32, ptr %13, align 4
  %18 = icmp sgt i32 %17, 0
  br i1 %18, label %19, label %34

19:                                               ; preds = %5
  %20 = load ptr, ptr %6, align 8
  %21 = load ptr, ptr %7, align 8
  %22 = load ptr, ptr %8, align 8
  %23 = load i32, ptr %11, align 4
  %24 = call zeroext i16 @elem_v(ptr noundef %20, ptr noundef %21, ptr noundef %22, i32 noundef 1, i32 noundef 9, i32 noundef %23, ptr noundef null)
  %25 = zext i16 %24 to i32
  store i32 %25, ptr %12, align 4
  %26 = icmp ugt i32 %25, 0
  br i1 %26, label %27, label %34

27:                                               ; preds = %19
  %28 = load i32, ptr %12, align 4
  %29 = load i32, ptr %11, align 4
  %30 = add i32 %29, %28
  store i32 %30, ptr %11, align 4
  %31 = load i32, ptr %12, align 4
  %32 = load i32, ptr %13, align 4
  %33 = sub i32 %32, %31
  store i32 %33, ptr %13, align 4
  br label %41

34:                                               ; preds = %19, %5
  %35 = load ptr, ptr %7, align 8
  %36 = load ptr, ptr %8, align 8
  %37 = load ptr, ptr %6, align 8
  %38 = load i32, ptr %11, align 4
  %39 = call ptr @get_gsm_a_msg_string(i32 noundef 1, i32 noundef 9)
  %40 = call ptr (ptr, ptr, ptr, ptr, i32, i32, ptr, ...) @proto_tree_add_expert_format(ptr noundef %35, ptr noundef %36, ptr noundef @ei_gsm_a_dtap_missing_mandatory_element, ptr noundef %37, i32 noundef %38, i32 noundef 0, ptr noundef @.str.1325, ptr noundef %39, ptr noundef @.str.824)
  br label %41

41:                                               ; preds = %34, %27
  %42 = load i32, ptr %13, align 4
  %43 = icmp sle i32 %42, 0
  br i1 %43, label %44, label %45

44:                                               ; preds = %41
  store i32 1, ptr %14, align 4
  br label %77

45:                                               ; preds = %41
  %46 = load ptr, ptr %6, align 8
  %47 = load ptr, ptr %7, align 8
  %48 = load ptr, ptr %8, align 8
  %49 = load i32, ptr %11, align 4
  %50 = load i32, ptr %13, align 4
  %51 = call zeroext i16 @elem_tlv(ptr noundef %46, ptr noundef %47, ptr noundef %48, i8 noundef zeroext 54, i32 noundef 1, i32 noundef 18, i32 noundef %49, i32 noundef %50, ptr noundef @.str.1339)
  %52 = zext i16 %51 to i32
  store i32 %52, ptr %12, align 4
  %53 = icmp ugt i32 %52, 0
  br i1 %53, label %54, label %61

54:                                               ; preds = %45
  %55 = load i32, ptr %12, align 4
  %56 = load i32, ptr %11, align 4
  %57 = add i32 %56, %55
  store i32 %57, ptr %11, align 4
  %58 = load i32, ptr %12, align 4
  %59 = load i32, ptr %13, align 4
  %60 = sub i32 %59, %58
  store i32 %60, ptr %13, align 4
  br label %61

61:                                               ; preds = %54, %45
  %62 = load i32, ptr %13, align 4
  %63 = icmp ugt i32 %62, 0
  br i1 %63, label %64, label %76

64:                                               ; preds = %61
  %65 = load ptr, ptr %7, align 8
  %66 = load ptr, ptr %8, align 8
  %67 = load ptr, ptr %6, align 8
  %68 = load i32, ptr %11, align 4
  %69 = load i32, ptr %13, align 4
  %70 = sub i32 %69, 0
  %71 = call ptr @proto_tree_add_expert(ptr noundef %65, ptr noundef %66, ptr noundef @ei_gsm_a_dtap_extraneous_data, ptr noundef %67, i32 noundef %68, i32 noundef %70)
  %72 = load i32, ptr %13, align 4
  %73 = sub i32 %72, 0
  %74 = load i32, ptr %11, align 4
  %75 = add i32 %74, %73
  store i32 %75, ptr %11, align 4
  br label %76

76:                                               ; preds = %64, %61
  store i32 0, ptr %14, align 4
  br label %77

77:                                               ; preds = %76, %44
  call void @llvm.lifetime.end.p0(i64 4, ptr %13) #7
  call void @llvm.lifetime.end.p0(i64 4, ptr %12) #7
  call void @llvm.lifetime.end.p0(i64 4, ptr %11) #7
  %78 = load i32, ptr %14, align 4
  switch i32 %78, label %80 [
    i32 0, label %79
    i32 1, label %79
  ]

79:                                               ; preds = %77, %77
  ret void

80:                                               ; preds = %77
  unreachable
}